target datalayout = "e-m:e-p270:32:32-p271:32:32-p272:64:64-i64:64-i128:128-f80:128-n8:16:32:64-S128"
target triple = "x86_64-pc-linux-gnu"

; Function Attrs: nounwind uwtable
define i32 @pmix_mca_base_var_generate_full_name4(ptr noundef %0, ptr noundef %1, ptr noundef %2, ptr noundef %3, ptr noundef %4) #0 {
  %6 = alloca i32, align 4
  %7 = alloca ptr, align 8
  %8 = alloca ptr, align 8
  %9 = alloca ptr, align 8
  %10 = alloca ptr, align 8
  %11 = alloca ptr, align 8
  %12 = alloca [4 x ptr], align 16
  %13 = alloca ptr, align 8
  %14 = alloca ptr, align 8
  %15 = alloca i64, align 8
  %16 = alloca i64, align 8
  %17 = alloca i32, align 4
  store ptr %0, ptr %7, align 8, !tbaa !47
  store ptr %1, ptr %8, align 8, !tbaa !47
  store ptr %2, ptr %9, align 8, !tbaa !47
  store ptr %3, ptr %10, align 8, !tbaa !47
  store ptr %4, ptr %11, align 8, !tbaa !48
  call void @llvm.lifetime.start.p0(i64 32, ptr %12) #15
  %18 = load ptr, ptr %7, align 8, !tbaa !47
  store ptr %18, ptr %12, align 8, !tbaa !47
  %19 = getelementptr inbounds ptr, ptr %12, i64 1
  %20 = load ptr, ptr %8, align 8, !tbaa !47
  store ptr %20, ptr %19, align 8, !tbaa !47
  %21 = getelementptr inbounds ptr, ptr %12, i64 2
  %22 = load ptr, ptr %9, align 8, !tbaa !47
  store ptr %22, ptr %21, align 8, !tbaa !47
  %23 = getelementptr inbounds ptr, ptr %12, i64 3
  %24 = load ptr, ptr %10, align 8, !tbaa !47
  store ptr %24, ptr %23, align 8, !tbaa !47
  call void @llvm.lifetime.start.p0(i64 8, ptr %13) #15
  call void @llvm.lifetime.start.p0(i64 8, ptr %14) #15
  call void @llvm.lifetime.start.p0(i64 8, ptr %15) #15
  call void @llvm.lifetime.start.p0(i64 8, ptr %16) #15
  %25 = load ptr, ptr %11, align 8, !tbaa !48
  store ptr null, ptr %25, align 8, !tbaa !47
  store i64 0, ptr %15, align 8, !tbaa !50
  store i64 0, ptr %16, align 8, !tbaa !50
  br label %26

26:                                               ; preds = %43, %5
  %27 = load i64, ptr %15, align 8, !tbaa !50
  %28 = icmp ult i64 %27, 4
  br i1 %28, label %29, label %46

29:                                               ; preds = %26
  %30 = load i64, ptr %15, align 8, !tbaa !50
  %31 = getelementptr inbounds nuw [4 x ptr], ptr %12, i64 0, i64 %30
  %32 = load ptr, ptr %31, align 8, !tbaa !47
  %33 = icmp ne ptr null, %32
  br i1 %33, label %34, label %42

34:                                               ; preds = %29
  %35 = load i64, ptr %15, align 8, !tbaa !50
  %36 = getelementptr inbounds nuw [4 x ptr], ptr %12, i64 0, i64 %35
  %37 = load ptr, ptr %36, align 8, !tbaa !47
  %38 = call i64 @strlen(ptr noundef %37) #16
  %39 = add i64 %38, 1
  %40 = load i64, ptr %16, align 8, !tbaa !50
  %41 = add i64 %40, %39
  store i64 %41, ptr %16, align 8, !tbaa !50
  br label %42

42:                                               ; preds = %34, %29
  br label %43

43:                                               ; preds = %42
  %44 = load i64, ptr %15, align 8, !tbaa !50
  %45 = add i64 %44, 1
  store i64 %45, ptr %15, align 8, !tbaa !50
  br label %26, !llvm.loop !51

46:                                               ; preds = %26
  %47 = load i64, ptr %16, align 8, !tbaa !50
  %48 = call noalias ptr @calloc(i64 noundef 1, i64 noundef %47) #17
  store ptr %48, ptr %13, align 8, !tbaa !47
  %49 = load ptr, ptr %13, align 8, !tbaa !47
  %50 = icmp eq ptr null, %49
  br i1 %50, label %51, label %52

51:                                               ; preds = %46
  store i32 -29, ptr %6, align 4
  store i32 1, ptr %17, align 4
  br label %95

52:                                               ; preds = %46
  store i64 0, ptr %15, align 8, !tbaa !50
  %53 = load ptr, ptr %13, align 8, !tbaa !47
  store ptr %53, ptr %14, align 8, !tbaa !47
  br label %54

54:                                               ; preds = %89, %52
  %55 = load i64, ptr %15, align 8, !tbaa !50
  %56 = icmp ult i64 %55, 4
  br i1 %56, label %57, label %92

57:                                               ; preds = %54
  %58 = load i64, ptr %15, align 8, !tbaa !50
  %59 = getelementptr inbounds nuw [4 x ptr], ptr %12, i64 0, i64 %58
  %60 = load ptr, ptr %59, align 8, !tbaa !47
  %61 = icmp ne ptr null, %60
  br i1 %61, label %62, label %88

62:                                               ; preds = %57
  %63 = load ptr, ptr %13, align 8, !tbaa !47
  %64 = load ptr, ptr %14, align 8, !tbaa !47
  %65 = icmp ne ptr %63, %64
  br i1 %65, label %66, label %69

66:                                               ; preds = %62
  %67 = load ptr, ptr %14, align 8, !tbaa !47
  %68 = getelementptr inbounds nuw i8, ptr %67, i32 1
  store ptr %68, ptr %14, align 8, !tbaa !47
  store i8 95, ptr %67, align 1, !tbaa !24
  br label %69

69:                                               ; preds = %66, %62
  %70 = load ptr, ptr %13, align 8, !tbaa !47
  %71 = load i64, ptr %15, align 8, !tbaa !50
  %72 = getelementptr inbounds nuw [4 x ptr], ptr %12, i64 0, i64 %71
  %73 = load ptr, ptr %72, align 8, !tbaa !47
  %74 = load i64, ptr %16, align 8, !tbaa !50
  %75 = load ptr, ptr %14, align 8, !tbaa !47
  %76 = load ptr, ptr %13, align 8, !tbaa !47
  %77 = ptrtoint ptr %75 to i64
  %78 = ptrtoint ptr %76 to i64
  %79 = sub i64 %77, %78
  %80 = sub i64 %74, %79
  %81 = call ptr @strncat(ptr noundef %70, ptr noundef %73, i64 noundef %80) #15
  %82 = load i64, ptr %15, align 8, !tbaa !50
  %83 = getelementptr inbounds nuw [4 x ptr], ptr %12, i64 0, i64 %82
  %84 = load ptr, ptr %83, align 8, !tbaa !47
  %85 = call i64 @strlen(ptr noundef %84) #16
  %86 = load ptr, ptr %14, align 8, !tbaa !47
  %87 = getelementptr inbounds nuw i8, ptr %86, i64 %85
  store ptr %87, ptr %14, align 8, !tbaa !47
  br label %88

88:                                               ; preds = %69, %57
  br label %89

89:                                               ; preds = %88
  %90 = load i64, ptr %15, align 8, !tbaa !50
  %91 = add i64 %90, 1
  store i64 %91, ptr %15, align 8, !tbaa !50
  br label %54, !llvm.loop !53

92:                                               ; preds = %54
  %93 = load ptr, ptr %13, align 8, !tbaa !47
  %94 = load ptr, ptr %11, align 8, !tbaa !48
  store ptr %93, ptr %94, align 8, !tbaa !47
  store i32 0, ptr %6, align 4
  store i32 1, ptr %17, align 4
  br label %95

95:                                               ; preds = %92, %51
  call void @llvm.lifetime.end.p0(i64 8, ptr %16) #15
  call void @llvm.lifetime.end.p0(i64 8, ptr %15) #15
  call void @llvm.lifetime.end.p0(i64 8, ptr %14) #15
  call void @llvm.lifetime.end.p0(i64 8, ptr %13) #15
  call void @llvm.lifetime.end.p0(i64 32, ptr %12) #15
  %96 = load i32, ptr %6, align 4
  ret i32 %96
}