; Function Attrs: nofree nounwind uwtable
define range(i32 -29, 1) i32 @pmix_mca_base_var_generate_full_name4(ptr noundef %0, ptr noundef %1, ptr noundef %2, ptr noundef %3, ptr noundef writeonly captures(none) initializes((0, 8)) %4) local_unnamed_addr #3 {
  %6 = alloca [4 x ptr], align 16
  call void @llvm.lifetime.start.p0(i64 32, ptr nonnull %6) #25
  store ptr %0, ptr %6, align 16, !tbaa !51
  %7 = getelementptr inbounds nuw i8, ptr %6, i64 8
  store ptr %1, ptr %7, align 8, !tbaa !51
  %8 = getelementptr inbounds nuw i8, ptr %6, i64 16
  store ptr %2, ptr %8, align 16, !tbaa !51
  %9 = getelementptr inbounds nuw i8, ptr %6, i64 24
  store ptr %3, ptr %9, align 8, !tbaa !51
  store ptr null, ptr %4, align 8, !tbaa !51
  br label %10

10:                                               ; preds = %5, %17
  %.039 = phi i64 [ 0, %5 ], [ %.1, %17 ]
  %.02838 = phi i64 [ 0, %5 ], [ %18, %17 ]
  %11 = getelementptr inbounds nuw [4 x ptr], ptr %6, i64 0, i64 %.02838
  %12 = load ptr, ptr %11, align 8, !tbaa !51
  %.not36 = icmp eq ptr %12, null
  br i1 %.not36, label %17, label %13

13:                                               ; preds = %10
  %14 = tail call i64 @strlen(ptr noundef nonnull dereferenceable(1) %12) #30
  %15 = add i64 %.039, 1
  %16 = add i64 %15, %14
  br label %17

17:                                               ; preds = %10, %13
  %.1 = phi i64 [ %16, %13 ], [ %.039, %10 ]
  %18 = add nuw nsw i64 %.02838, 1
  %exitcond.not = icmp eq i64 %18, 4
  br i1 %exitcond.not, label %19, label %10, !llvm.loop !52

19:                                               ; preds = %17
  %20 = tail call noalias ptr @calloc(i64 noundef 1, i64 noundef %.1) #31
  %21 = icmp eq ptr %20, null
  br i1 %21, label %38, label %.preheader

.preheader:                                       ; preds = %19
  %22 = ptrtoint ptr %20 to i64
  %.neg = add i64 %.1, %22
  br label %23

23:                                               ; preds = %.preheader, %35
  %.12941 = phi i64 [ 0, %.preheader ], [ %36, %35 ]
  %.03040 = phi ptr [ %20, %.preheader ], [ %.2, %35 ]
  %24 = getelementptr inbounds nuw [4 x ptr], ptr %6, i64 0, i64 %.12941
  %25 = load ptr, ptr %24, align 8, !tbaa !51
  %.not = icmp eq ptr %25, null
  br i1 %.not, label %35, label %26

26:                                               ; preds = %23
  %.not35 = icmp eq ptr %20, %.03040
  br i1 %.not35, label %29, label %27

27:                                               ; preds = %26
  %28 = getelementptr inbounds nuw i8, ptr %.03040, i64 1
  store i8 95, ptr %.03040, align 1, !tbaa !30
  %.pre = load ptr, ptr %24, align 8, !tbaa !51
  %.pre43 = ptrtoint ptr %28 to i64
  br label %29

29:                                               ; preds = %27, %26
  %.pre-phi = phi i64 [ %.pre43, %27 ], [ %22, %26 ]
  %30 = phi ptr [ %.pre, %27 ], [ %25, %26 ]
  %.131 = phi ptr [ %28, %27 ], [ %20, %26 ]
  %31 = sub i64 %.neg, %.pre-phi
  %32 = tail call ptr @strncat(ptr noundef nonnull dereferenceable(1) %20, ptr noundef %30, i64 noundef %31) #25
  %33 = tail call i64 @strlen(ptr noundef nonnull dereferenceable(1) %30) #30
  %34 = getelementptr inbounds nuw i8, ptr %.131, i64 %33
  br label %35

35:                                               ; preds = %23, %29
  %.2 = phi ptr [ %34, %29 ], [ %.03040, %23 ]
  %36 = add nuw nsw i64 %.12941, 1
  %exitcond42.not = icmp eq i64 %36, 4
  br i1 %exitcond42.not, label %37, label %23, !llvm.loop !53

37:                                               ; preds = %35
  store ptr %20, ptr %4, align 8, !tbaa !51
  br label %38

38:                                               ; preds = %19, %37
  %.032 = phi i32 [ 0, %37 ], [ -29, %19 ]
  call void @llvm.lifetime.end.p0(i64 32, ptr nonnull %6) #25
  ret i32 %.032
}